target datalayout = "e-m:e-p270:32:32-p271:32:32-p272:64:64-i64:64-i128:128-f80:128-n8:16:32:64-S128"
target triple = "x86_64-pc-linux-gnu"

$_ZSt4sqrtf = comdat any

; Function Attrs: mustprogress uwtable
define noundef float @_ZN5ZXing11ResultPoint8DistanceEiiii(i32 noundef %0, i32 noundef %1, i32 noundef %2, i32 noundef %3) #0 align 2 {
  %5 = alloca i32, align 4
  %6 = alloca i32, align 4
  %7 = alloca i32, align 4
  %8 = alloca i32, align 4
  %9 = alloca float, align 4
  %10 = alloca float, align 4
  store i32 %0, ptr %5, align 4
  store i32 %1, ptr %6, align 4
  store i32 %2, ptr %7, align 4
  store i32 %3, ptr %8, align 4
  %11 = load i32, ptr %5, align 4
  %12 = load i32, ptr %7, align 4
  %13 = sub nsw i32 %11, %12
  %14 = sitofp i32 %13 to float
  store float %14, ptr %9, align 4
  %15 = load i32, ptr %6, align 4
  %16 = load i32, ptr %8, align 4
  %17 = sub nsw i32 %15, %16
  %18 = sitofp i32 %17 to float
  store float %18, ptr %10, align 4
  %19 = load float, ptr %9, align 4
  %20 = load float, ptr %9, align 4
  %21 = load float, ptr %10, align 4
  %22 = load float, ptr %10, align 4
  %23 = fmul float %21, %22
  %24 = call float @llvm.fmuladd.f32(float %19, float %20, float %23)
  %25 = call noundef float @_ZSt4sqrtf(float noundef %24)
  ret float %25
}

; Function Attrs: mustprogress nounwind uwtable
define linkonce_odr noundef float @_ZSt4sqrtf(float noundef %0) #1 comdat {
  %2 = alloca float, align 4
  store float %0, ptr %2, align 4
  %3 = load float, ptr %2, align 4
  %4 = call float @sqrtf(float noundef %3) #4
  ret float %4
}

; Function Attrs: nocallback nofree nosync nounwind speculatable willreturn memory(none)
declare float @llvm.fmuladd.f32(float, float, float) #2

; Function Attrs: nounwind
declare float @sqrtf(float noundef) #3


!llvm.module.flags = !{!0, !1, !2, !3}

!0 = !{i32 1, !"wchar_size", i32 4}
!1 = !{i32 8, !"PIC Level", i32 2}
!2 = !{i32 7, !"uwtable", i32 2}
!3 = !{i32 7, !"frame-pointer", i32 2}
