; ModuleID = 'bench/zxing/original/ResultPoint.cpp.ll'
source_filename = "bench/zxing/original/ResultPoint.cpp.ll"
target datalayout = "e-m:e-p270:32:32-p271:32:32-p272:64:64-i64:64-i128:128-f80:128-n8:16:32:64-S128"
target triple = "x86_64-pc-linux-gnu"

; Function Attrs: mustprogress nofree norecurse nosync nounwind willreturn memory(none) uwtable
define noundef float @_ZN5ZXing11ResultPoint8DistanceEiiii(i32 noundef %0, i32 noundef %1, i32 noundef %2, i32 noundef %3) local_unnamed_addr #0 align 2 {
  %5 = sub nsw i32 %0, %2
  %6 = sitofp i32 %5 to float
  %7 = sub nsw i32 %1, %3
  %8 = sitofp i32 %7 to float
  %9 = fmul float %8, %8
  %10 = tail call float @llvm.fmuladd.f32(float %6, float %6, float %9)
  %sqrt = tail call float @llvm.sqrt.f32(float %10)
  ret float %sqrt
}

; Function Attrs: mustprogress nocallback nofree nosync nounwind speculatable willreturn memory(none)
declare float @llvm.fmuladd.f32(float, float, float) #1

; Function Attrs: nocallback nofree nosync nounwind speculatable willreturn memory(none)
declare float @llvm.sqrt.f32(float) #2


!llvm.module.flags = !{!0, !1, !2, !3}

!0 = !{i32 1, !"wchar_size", i32 4}
!1 = !{i32 8, !"PIC Level", i32 2}
!2 = !{i32 7, !"uwtable", i32 2}
!3 = !{i32 7, !"frame-pointer", i32 2}
